; Function Attrs: mustprogress nofree norecurse nosync nounwind willreturn memory(read, inaccessiblemem: none) uwtable
define dso_local noundef zeroext i8 @_ZNK3net22QuicSentEntropyManager16GetPacketEntropyEm(ptr nocapture noundef nonnull readonly align 8 dereferenceable(128) %this, i64 noundef %packet_number) local_unnamed_addr #3 align 2 {
entry:
  %map_offset_ = getelementptr inbounds i8, ptr %this, i64 88
  %0 = load i64, ptr %map_offset_, align 8
  %sub = sub i64 %packet_number, %0
  %_M_start.i = getelementptr inbounds i8, ptr %this, i64 24
  %1 = load ptr, ptr %_M_start.i, align 8, !noalias !7
  %_M_first3.i.i.i.i = getelementptr inbounds i8, ptr %this, i64 32
  %2 = load ptr, ptr %_M_first3.i.i.i.i, align 8, !noalias !7
  %_M_node5.i.i.i.i = getelementptr inbounds i8, ptr %this, i64 48
  %3 = load ptr, ptr %_M_node5.i.i.i.i, align 8, !noalias !7
  %sub.ptr.lhs.cast.i.i.i.i = ptrtoint ptr %1 to i64
  %sub.ptr.rhs.cast.i.i.i.i = ptrtoint ptr %2 to i64
  %sub.ptr.sub.i.i.i.i = sub i64 %sub.ptr.lhs.cast.i.i.i.i, %sub.ptr.rhs.cast.i.i.i.i
  %add.i.i.i.i = add nsw i64 %sub.ptr.sub.i.i.i.i, %sub
  %cmp.i.i.i.i = icmp sgt i64 %add.i.i.i.i, -1
  br i1 %cmp.i.i.i.i, label %land.lhs.true.i.i.i.i, label %cond.false.i.i.i.i

land.lhs.true.i.i.i.i:                            ; preds = %entry
  %cmp2.i.i.i.i = icmp ult i64 %add.i.i.i.i, 512
  br i1 %cmp2.i.i.i.i, label %if.then.i.i.i.i, label %cond.true.i.i.i.i

if.then.i.i.i.i:                                  ; preds = %land.lhs.true.i.i.i.i
  %add.ptr.i.i.i.i = getelementptr inbounds i8, ptr %1, i64 %sub
  br label %_ZNKSt5dequeIhSaIhEEixEm.exit

cond.true.i.i.i.i:                                ; preds = %land.lhs.true.i.i.i.i
  %div911.i.i.i.i = lshr i64 %add.i.i.i.i, 9
  br label %cond.end.i.i.i.i

cond.false.i.i.i.i:                               ; preds = %entry
  %sub10.i.i.i.i = ashr i64 %add.i.i.i.i, 9
  br label %cond.end.i.i.i.i

cond.end.i.i.i.i:                                 ; preds = %cond.false.i.i.i.i, %cond.true.i.i.i.i
  %cond.i.i.i.i = phi i64 [ %div911.i.i.i.i, %cond.true.i.i.i.i ], [ %sub10.i.i.i.i, %cond.false.i.i.i.i ]
  %add.ptr11.i.i.i.i = getelementptr inbounds ptr, ptr %3, i64 %cond.i.i.i.i
  %4 = load ptr, ptr %add.ptr11.i.i.i.i, align 8, !noalias !7
  %mul.i.i.i.i = shl nsw i64 %cond.i.i.i.i, 9
  %sub14.i.i.i.i = sub nsw i64 %add.i.i.i.i, %mul.i.i.i.i
  %add.ptr15.i.i.i.i = getelementptr inbounds i8, ptr %4, i64 %sub14.i.i.i.i
  br label %_ZNKSt5dequeIhSaIhEEixEm.exit

_ZNKSt5dequeIhSaIhEEixEm.exit:                    ; preds = %if.then.i.i.i.i, %cond.end.i.i.i.i
  %storemerge.i.i.i.i = phi ptr [ %add.ptr15.i.i.i.i, %cond.end.i.i.i.i ], [ %add.ptr.i.i.i.i, %if.then.i.i.i.i ]
  %5 = load i8, ptr %storemerge.i.i.i.i, align 1
  ret i8 %5
}